; Function Attrs: mustprogress uwtable
define internal fastcc void @_ZN13sentencepiece14unicode_script12_GLOBAL__N_117GetScriptInternalC2Ev() unnamed_addr #3 align 2 personality ptr @__gxx_personality_v0 {
  store ptr getelementptr inbounds nuw (i8, ptr @_ZZN13sentencepiece14unicode_script9GetScriptEjE2sc, i64 48), ptr @_ZZN13sentencepiece14unicode_script9GetScriptEjE2sc, align 8, !tbaa !22
  store i64 1, ptr getelementptr inbounds nuw (i8, ptr @_ZZN13sentencepiece14unicode_script9GetScriptEjE2sc, i64 8), align 8, !tbaa !21
  tail call void @llvm.memset.p0.i64(ptr noundef nonnull align 8 dereferenceable(16) getelementptr inbounds nuw (i8, ptr @_ZZN13sentencepiece14unicode_script9GetScriptEjE2sc, i64 16), i8 0, i64 16, i1 false)
  store float 1.000000e+00, ptr getelementptr inbounds nuw (i8, ptr @_ZZN13sentencepiece14unicode_script9GetScriptEjE2sc, i64 32), align 8, !tbaa !27
  tail call void @llvm.memset.p0.i64(ptr noundef nonnull align 8 dereferenceable(16) getelementptr inbounds nuw (i8, ptr @_ZZN13sentencepiece14unicode_script9GetScriptEjE2sc, i64 40), i8 0, i64 16, i1 false)
  invoke fastcc void @_ZN13sentencepiece14unicode_script12_GLOBAL__N_19InitTableEPSt13unordered_mapIjNS0_10ScriptTypeESt4hashIjESt8equal_toIjESaISt4pairIKjS3_EEE()
          to label %1 unwind label %2

1:                                                ; preds = %0
  ret void

2:                                                ; preds = %0
  %3 = landingpad { ptr, i32 }
          cleanup
  tail call void @_ZNSt13unordered_mapIjN13sentencepiece14unicode_script10ScriptTypeESt4hashIjESt8equal_toIjESaISt4pairIKjS2_EEED2Ev(ptr noundef nonnull align 8 dereferenceable(56) @_ZZN13sentencepiece14unicode_script9GetScriptEjE2sc) #12
  resume { ptr, i32 } %3
}